; Function Attrs: mustprogress uwtable
define internal fastcc void @_ZSt9push_heapIN9__gnu_cxx17__normal_iteratorIPN32pxrInternal_v0_24__pxrReserved__12_GLOBAL__N_14TaskESt6vectorIS4_SaIS4_EEEENS4_13PriorityOrderEEvT_SB_T0_(ptr %0, ptr %1) unnamed_addr #3 personality ptr @__gxx_personality_v0 {
  %3 = alloca %"struct.pxrInternal_v0_24__pxrReserved__::(anonymous namespace)::Task", align 8
  %4 = alloca %"struct.pxrInternal_v0_24__pxrReserved__::(anonymous namespace)::Task", align 8
  %5 = getelementptr inbounds i8, ptr %1, i64 -64
  call void @llvm.memcpy.p0.p0.i64(ptr noundef nonnull align 8 dereferenceable(24) %3, ptr noundef nonnull align 8 dereferenceable(24) %5, i64 24, i1 false)
  %6 = getelementptr inbounds nuw i8, ptr %3, i64 24
  %7 = getelementptr inbounds i8, ptr %1, i64 -40
  call void @_ZNSt7__cxx1112basic_stringIcSt11char_traitsIcESaIcEEC1EOS4_(ptr noundef nonnull align 8 dereferenceable(32) %6, ptr noundef nonnull align 8 dereferenceable(32) %7) #22
  %8 = getelementptr inbounds nuw i8, ptr %3, i64 56
  %9 = getelementptr inbounds i8, ptr %1, i64 -8
  %10 = load i32, ptr %9, align 4
  store i32 %10, ptr %8, align 8
  store i32 0, ptr %9, align 4
  %11 = getelementptr inbounds i8, ptr %3, i64 60
  %12 = getelementptr inbounds i8, ptr %1, i64 -4
  %13 = load i32, ptr %12, align 4
  store i32 %13, ptr %11, align 4
  store i32 0, ptr %12, align 4
  %14 = ptrtoint ptr %1 to i64
  %15 = ptrtoint ptr %0 to i64
  %16 = sub i64 %14, %15
  %17 = ashr exact i64 %16, 6
  %18 = add nsw i64 %17, -1
  call void @llvm.memcpy.p0.p0.i64(ptr noundef nonnull align 8 dereferenceable(24) %4, ptr noundef nonnull align 8 dereferenceable(24) %3, i64 24, i1 false)
  %19 = getelementptr inbounds nuw i8, ptr %4, i64 24
  call void @_ZNSt7__cxx1112basic_stringIcSt11char_traitsIcESaIcEEC1EOS4_(ptr noundef nonnull align 8 dereferenceable(32) %19, ptr noundef nonnull align 8 dereferenceable(32) %6) #22
  %20 = getelementptr inbounds nuw i8, ptr %4, i64 56
  %21 = load i32, ptr %8, align 8
  store i32 %21, ptr %20, align 8
  store i32 0, ptr %8, align 8
  %22 = getelementptr inbounds i8, ptr %4, i64 60
  %23 = load i32, ptr %11, align 4
  store i32 %23, ptr %22, align 4
  store i32 0, ptr %11, align 4
  invoke fastcc void @_ZSt11__push_heapIN9__gnu_cxx17__normal_iteratorIPN32pxrInternal_v0_24__pxrReserved__12_GLOBAL__N_14TaskESt6vectorIS4_SaIS4_EEEElS4_NS0_5__ops14_Iter_comp_valINS4_13PriorityOrderEEEEvT_T0_SF_T1_RT2_(ptr %0, i64 noundef %18, ptr noundef nonnull %4)
          to label %24 unwind label %61

24:                                               ; preds = %2
  %25 = load i32, ptr %20, align 8
  %.not.i.i.i = icmp eq i32 %25, 0
  br i1 %.not.i.i.i, label %_ZN32pxrInternal_v0_24__pxrReserved__12_GLOBAL__N_14TaskD2Ev.exit, label %26

26:                                               ; preds = %24
  %27 = and i32 %25, 255
  %28 = lshr i32 %25, 8
  %29 = zext nneg i32 %27 to i64
  %30 = getelementptr inbounds [257 x ptr], ptr @_ZN32pxrInternal_v0_24__pxrReserved__8Sdf_PoolINS_15Sdf_PathPrimTagELj24ELj8ELj16384EE13_regionStartsE, i64 0, i64 %29
  %31 = load ptr, ptr %30, align 8
  %32 = mul nuw nsw i32 %28, 24
  %33 = zext nneg i32 %32 to i64
  %34 = getelementptr inbounds i8, ptr %31, i64 %33
  %35 = getelementptr inbounds nuw i8, ptr %34, i64 8
  %36 = atomicrmw sub ptr %35, i32 1 seq_cst, align 4
  %37 = and i32 %36, 2147483647
  %38 = icmp eq i32 %37, 1
  br i1 %38, label %39, label %_ZN32pxrInternal_v0_24__pxrReserved__12_GLOBAL__N_14TaskD2Ev.exit

39:                                               ; preds = %26
  invoke void @_ZNK32pxrInternal_v0_24__pxrReserved__12Sdf_PathNode8_DestroyEv(ptr noundef nonnull align 8 dereferenceable(16) %34)
          to label %_ZN32pxrInternal_v0_24__pxrReserved__12_GLOBAL__N_14TaskD2Ev.exit unwind label %40

40:                                               ; preds = %39
  %41 = landingpad { ptr, i32 }
          catch ptr null
  %42 = extractvalue { ptr, i32 } %41, 0
  call void @__clang_call_terminate(ptr %42) #31
  unreachable

_ZN32pxrInternal_v0_24__pxrReserved__12_GLOBAL__N_14TaskD2Ev.exit: ; preds = %24, %26, %39
  call void @_ZNSt7__cxx1112basic_stringIcSt11char_traitsIcESaIcEED1Ev(ptr noundef nonnull align 8 dereferenceable(32) %19) #22
  %43 = load i32, ptr %8, align 8
  %.not.i.i.i4 = icmp eq i32 %43, 0
  br i1 %.not.i.i.i4, label %_ZN32pxrInternal_v0_24__pxrReserved__12_GLOBAL__N_14TaskD2Ev.exit5, label %44

44:                                               ; preds = %_ZN32pxrInternal_v0_24__pxrReserved__12_GLOBAL__N_14TaskD2Ev.exit
  %45 = and i32 %43, 255
  %46 = lshr i32 %43, 8
  %47 = zext nneg i32 %45 to i64
  %48 = getelementptr inbounds [257 x ptr], ptr @_ZN32pxrInternal_v0_24__pxrReserved__8Sdf_PoolINS_15Sdf_PathPrimTagELj24ELj8ELj16384EE13_regionStartsE, i64 0, i64 %47
  %49 = load ptr, ptr %48, align 8
  %50 = mul nuw nsw i32 %46, 24
  %51 = zext nneg i32 %50 to i64
  %52 = getelementptr inbounds i8, ptr %49, i64 %51
  %53 = getelementptr inbounds nuw i8, ptr %52, i64 8
  %54 = atomicrmw sub ptr %53, i32 1 seq_cst, align 4
  %55 = and i32 %54, 2147483647
  %56 = icmp eq i32 %55, 1
  br i1 %56, label %57, label %_ZN32pxrInternal_v0_24__pxrReserved__12_GLOBAL__N_14TaskD2Ev.exit5

57:                                               ; preds = %44
  invoke void @_ZNK32pxrInternal_v0_24__pxrReserved__12Sdf_PathNode8_DestroyEv(ptr noundef nonnull align 8 dereferenceable(16) %52)
          to label %_ZN32pxrInternal_v0_24__pxrReserved__12_GLOBAL__N_14TaskD2Ev.exit5 unwind label %58

58:                                               ; preds = %57
  %59 = landingpad { ptr, i32 }
          catch ptr null
  %60 = extractvalue { ptr, i32 } %59, 0
  call void @__clang_call_terminate(ptr %60) #31
  unreachable

_ZN32pxrInternal_v0_24__pxrReserved__12_GLOBAL__N_14TaskD2Ev.exit5: ; preds = %_ZN32pxrInternal_v0_24__pxrReserved__12_GLOBAL__N_14TaskD2Ev.exit, %44, %57
  call void @_ZNSt7__cxx1112basic_stringIcSt11char_traitsIcESaIcEED1Ev(ptr noundef nonnull align 8 dereferenceable(32) %6) #22
  ret void

61:                                               ; preds = %2
  %62 = landingpad { ptr, i32 }
          cleanup
  call fastcc void @_ZN32pxrInternal_v0_24__pxrReserved__12_GLOBAL__N_14TaskD2Ev(ptr noundef nonnull align 8 dereferenceable(64) %4) #22
  call fastcc void @_ZN32pxrInternal_v0_24__pxrReserved__12_GLOBAL__N_14TaskD2Ev(ptr noundef nonnull align 8 dereferenceable(64) %3) #22
  resume { ptr, i32 } %62
}